target datalayout = "e-m:e-p270:32:32-p271:32:32-p272:64:64-i64:64-i128:128-f80:128-n8:16:32:64-S128"
target triple = "x86_64-pc-linux-gnu"

%struct.__loadu_si128 = type { <2 x i64> }

; Function Attrs: alwaysinline nounwind uwtable
define internal i32 @_mm_movemask_epi8(<2 x i64> noundef %0) #3 {
  %2 = alloca <2 x i64>, align 16
  store <2 x i64> %0, ptr %2, align 16, !tbaa !11
  %3 = load <2 x i64>, ptr %2, align 16, !tbaa !11
  %4 = bitcast <2 x i64> %3 to <16 x i8>
  %5 = call i32 @llvm.x86.sse2.pmovmskb.128(<16 x i8> %4)
  ret i32 %5
}

; Function Attrs: alwaysinline nounwind uwtable
define internal <2 x i64> @_mm_cmpeq_epi32(<2 x i64> noundef %0, <2 x i64> noundef %1) #3 {
  %3 = alloca <2 x i64>, align 16
  %4 = alloca <2 x i64>, align 16
  store <2 x i64> %0, ptr %3, align 16, !tbaa !11
  store <2 x i64> %1, ptr %4, align 16, !tbaa !11
  %5 = load <2 x i64>, ptr %3, align 16, !tbaa !11
  %6 = bitcast <2 x i64> %5 to <4 x i32>
  %7 = load <2 x i64>, ptr %4, align 16, !tbaa !11
  %8 = bitcast <2 x i64> %7 to <4 x i32>
  %9 = icmp eq <4 x i32> %6, %8
  %10 = sext <4 x i1> %9 to <4 x i32>
  %11 = bitcast <4 x i32> %10 to <2 x i64>
  ret <2 x i64> %11
}

; Function Attrs: alwaysinline nounwind uwtable
define internal <2 x i64> @_mm_loadu_si128(ptr noundef %0) #3 {
  %2 = alloca ptr, align 8
  store ptr %0, ptr %2, align 8, !tbaa !3
  %3 = load ptr, ptr %2, align 8, !tbaa !3
  %4 = getelementptr inbounds nuw %struct.__loadu_si128, ptr %3, i32 0, i32 0
  %5 = load <2 x i64>, ptr %4, align 1, !tbaa !11
  ret <2 x i64> %5
}

; Function Attrs: nounwind uwtable
define internal i32 @VectorMismatch_SSE2(ptr noundef %0, ptr noundef %1, i32 noundef %2) #1 {
  %4 = alloca ptr, align 8
  %5 = alloca ptr, align 8
  %6 = alloca i32, align 4
  %7 = alloca i32, align 4
  %8 = alloca <2 x i64>, align 16
  %9 = alloca <2 x i64>, align 16
  %10 = alloca <2 x i64>, align 16
  %11 = alloca <2 x i64>, align 16
  %12 = alloca <2 x i64>, align 16
  %13 = alloca i32, align 4
  %14 = alloca <2 x i64>, align 16
  store ptr %0, ptr %4, align 8, !tbaa !7
  store ptr %1, ptr %5, align 8, !tbaa !7
  store i32 %2, ptr %6, align 4, !tbaa !9
  call void @llvm.lifetime.start.p0(i64 4, ptr %7) #9
  %15 = load i32, ptr %6, align 4, !tbaa !9
  %16 = icmp sge i32 %15, 12
  br i1 %16, label %17, label %81

17:                                               ; preds = %3
  call void @llvm.lifetime.start.p0(i64 16, ptr %8) #9
  %18 = load ptr, ptr %4, align 8, !tbaa !7
  %19 = getelementptr inbounds i32, ptr %18, i64 0
  %20 = call <2 x i64> @_mm_loadu_si128(ptr noundef %19)
  store <2 x i64> %20, ptr %8, align 16, !tbaa !11
  call void @llvm.lifetime.start.p0(i64 16, ptr %9) #9
  %21 = load ptr, ptr %5, align 8, !tbaa !7
  %22 = getelementptr inbounds i32, ptr %21, i64 0
  %23 = call <2 x i64> @_mm_loadu_si128(ptr noundef %22)
  store <2 x i64> %23, ptr %9, align 16, !tbaa !11
  store i32 0, ptr %7, align 4, !tbaa !9
  br label %24

24:                                               ; preds = %75, %17
  call void @llvm.lifetime.start.p0(i64 16, ptr %10) #9
  %25 = load <2 x i64>, ptr %8, align 16, !tbaa !11
  %26 = load <2 x i64>, ptr %9, align 16, !tbaa !11
  %27 = call <2 x i64> @_mm_cmpeq_epi32(<2 x i64> noundef %25, <2 x i64> noundef %26)
  store <2 x i64> %27, ptr %10, align 16, !tbaa !11
  call void @llvm.lifetime.start.p0(i64 16, ptr %11) #9
  %28 = load ptr, ptr %4, align 8, !tbaa !7
  %29 = load i32, ptr %7, align 4, !tbaa !9
  %30 = add nsw i32 %29, 4
  %31 = sext i32 %30 to i64
  %32 = getelementptr inbounds i32, ptr %28, i64 %31
  %33 = call <2 x i64> @_mm_loadu_si128(ptr noundef %32)
  store <2 x i64> %33, ptr %11, align 16, !tbaa !11
  call void @llvm.lifetime.start.p0(i64 16, ptr %12) #9
  %34 = load ptr, ptr %5, align 8, !tbaa !7
  %35 = load i32, ptr %7, align 4, !tbaa !9
  %36 = add nsw i32 %35, 4
  %37 = sext i32 %36 to i64
  %38 = getelementptr inbounds i32, ptr %34, i64 %37
  %39 = call <2 x i64> @_mm_loadu_si128(ptr noundef %38)
  store <2 x i64> %39, ptr %12, align 16, !tbaa !11
  %40 = load <2 x i64>, ptr %10, align 16, !tbaa !11
  %41 = call i32 @_mm_movemask_epi8(<2 x i64> noundef %40)
  %42 = icmp ne i32 %41, 65535
  br i1 %42, label %43, label %44

43:                                               ; preds = %24
  store i32 2, ptr %13, align 4
  br label %72

44:                                               ; preds = %24
  %45 = load i32, ptr %7, align 4, !tbaa !9
  %46 = add nsw i32 %45, 4
  store i32 %46, ptr %7, align 4, !tbaa !9
  call void @llvm.lifetime.start.p0(i64 16, ptr %14) #9
  %47 = load <2 x i64>, ptr %11, align 16, !tbaa !11
  %48 = load <2 x i64>, ptr %12, align 16, !tbaa !11
  %49 = call <2 x i64> @_mm_cmpeq_epi32(<2 x i64> noundef %47, <2 x i64> noundef %48)
  store <2 x i64> %49, ptr %14, align 16, !tbaa !11
  %50 = load ptr, ptr %4, align 8, !tbaa !7
  %51 = load i32, ptr %7, align 4, !tbaa !9
  %52 = add nsw i32 %51, 4
  %53 = sext i32 %52 to i64
  %54 = getelementptr inbounds i32, ptr %50, i64 %53
  %55 = call <2 x i64> @_mm_loadu_si128(ptr noundef %54)
  store <2 x i64> %55, ptr %8, align 16, !tbaa !11
  %56 = load ptr, ptr %5, align 8, !tbaa !7
  %57 = load i32, ptr %7, align 4, !tbaa !9
  %58 = add nsw i32 %57, 4
  %59 = sext i32 %58 to i64
  %60 = getelementptr inbounds i32, ptr %56, i64 %59
  %61 = call <2 x i64> @_mm_loadu_si128(ptr noundef %60)
  store <2 x i64> %61, ptr %9, align 16, !tbaa !11
  %62 = load <2 x i64>, ptr %14, align 16, !tbaa !11
  %63 = call i32 @_mm_movemask_epi8(<2 x i64> noundef %62)
  %64 = icmp ne i32 %63, 65535
  br i1 %64, label %65, label %66

65:                                               ; preds = %44
  store i32 2, ptr %13, align 4
  br label %69

66:                                               ; preds = %44
  %67 = load i32, ptr %7, align 4, !tbaa !9
  %68 = add nsw i32 %67, 4
  store i32 %68, ptr %7, align 4, !tbaa !9
  store i32 0, ptr %13, align 4
  br label %69

69:                                               ; preds = %66, %65
  call void @llvm.lifetime.end.p0(i64 16, ptr %14) #9
  %70 = load i32, ptr %13, align 4
  switch i32 %70, label %72 [
    i32 0, label %71
  ]

71:                                               ; preds = %69
  store i32 0, ptr %13, align 4
  br label %72

72:                                               ; preds = %71, %69, %43
  call void @llvm.lifetime.end.p0(i64 16, ptr %12) #9
  call void @llvm.lifetime.end.p0(i64 16, ptr %11) #9
  call void @llvm.lifetime.end.p0(i64 16, ptr %10) #9
  %73 = load i32, ptr %13, align 4
  switch i32 %73, label %134 [
    i32 0, label %74
    i32 2, label %80
  ]

74:                                               ; preds = %72
  br label %75

75:                                               ; preds = %74
  %76 = load i32, ptr %7, align 4, !tbaa !9
  %77 = add nsw i32 %76, 12
  %78 = load i32, ptr %6, align 4, !tbaa !9
  %79 = icmp slt i32 %77, %78
  br i1 %79, label %24, label %80, !llvm.loop !33

80:                                               ; preds = %75, %72
  call void @llvm.lifetime.end.p0(i64 16, ptr %9) #9
  call void @llvm.lifetime.end.p0(i64 16, ptr %8) #9
  br label %110

81:                                               ; preds = %3
  store i32 0, ptr %7, align 4, !tbaa !9
  %82 = load i32, ptr %6, align 4, !tbaa !9
  %83 = icmp sge i32 %82, 4
  br i1 %83, label %84, label %109

84:                                               ; preds = %81
  %85 = load ptr, ptr %4, align 8, !tbaa !7
  %86 = getelementptr inbounds i32, ptr %85, i64 0
  %87 = call <2 x i64> @_mm_loadu_si128(ptr noundef %86)
  %88 = load ptr, ptr %5, align 8, !tbaa !7
  %89 = getelementptr inbounds i32, ptr %88, i64 0
  %90 = call <2 x i64> @_mm_loadu_si128(ptr noundef %89)
  %91 = call <2 x i64> @_mm_cmpeq_epi32(<2 x i64> noundef %87, <2 x i64> noundef %90)
  %92 = call i32 @_mm_movemask_epi8(<2 x i64> noundef %91)
  %93 = icmp eq i32 %92, 65535
  br i1 %93, label %94, label %109

94:                                               ; preds = %84
  store i32 4, ptr %7, align 4, !tbaa !9
  %95 = load i32, ptr %6, align 4, !tbaa !9
  %96 = icmp sge i32 %95, 8
  br i1 %96, label %97, label %108

97:                                               ; preds = %94
  %98 = load ptr, ptr %4, align 8, !tbaa !7
  %99 = getelementptr inbounds i32, ptr %98, i64 4
  %100 = call <2 x i64> @_mm_loadu_si128(ptr noundef %99)
  %101 = load ptr, ptr %5, align 8, !tbaa !7
  %102 = getelementptr inbounds i32, ptr %101, i64 4
  %103 = call <2 x i64> @_mm_loadu_si128(ptr noundef %102)
  %104 = call <2 x i64> @_mm_cmpeq_epi32(<2 x i64> noundef %100, <2 x i64> noundef %103)
  %105 = call i32 @_mm_movemask_epi8(<2 x i64> noundef %104)
  %106 = icmp eq i32 %105, 65535
  br i1 %106, label %107, label %108

107:                                              ; preds = %97
  store i32 8, ptr %7, align 4, !tbaa !9
  br label %108

108:                                              ; preds = %107, %97, %94
  br label %109

109:                                              ; preds = %108, %84, %81
  br label %110

110:                                              ; preds = %109, %80
  br label %111

111:                                              ; preds = %129, %110
  %112 = load i32, ptr %7, align 4, !tbaa !9
  %113 = load i32, ptr %6, align 4, !tbaa !9
  %114 = icmp slt i32 %112, %113
  br i1 %114, label %115, label %127

115:                                              ; preds = %111
  %116 = load ptr, ptr %4, align 8, !tbaa !7
  %117 = load i32, ptr %7, align 4, !tbaa !9
  %118 = sext i32 %117 to i64
  %119 = getelementptr inbounds i32, ptr %116, i64 %118
  %120 = load i32, ptr %119, align 4, !tbaa !9
  %121 = load ptr, ptr %5, align 8, !tbaa !7
  %122 = load i32, ptr %7, align 4, !tbaa !9
  %123 = sext i32 %122 to i64
  %124 = getelementptr inbounds i32, ptr %121, i64 %123
  %125 = load i32, ptr %124, align 4, !tbaa !9
  %126 = icmp eq i32 %120, %125
  br label %127

127:                                              ; preds = %115, %111
  %128 = phi i1 [ false, %111 ], [ %126, %115 ]
  br i1 %128, label %129, label %132

129:                                              ; preds = %127
  %130 = load i32, ptr %7, align 4, !tbaa !9
  %131 = add nsw i32 %130, 1
  store i32 %131, ptr %7, align 4, !tbaa !9
  br label %111, !llvm.loop !34

132:                                              ; preds = %127
  %133 = load i32, ptr %7, align 4, !tbaa !9
  store i32 1, ptr %13, align 4
  call void @llvm.lifetime.end.p0(i64 4, ptr %7) #9
  ret i32 %133

134:                                              ; preds = %72
  unreachable
}