; Function Attrs: nofree norecurse nosync nounwind memory(argmem: read) uwtable
define internal i32 @VectorMismatch_SSE2(ptr noundef readonly captures(none) %0, ptr noundef readonly captures(none) %1, i32 noundef %2) #3 {
  %4 = icmp sgt i32 %2, 11
  br i1 %4, label %.preheader, label %28

.preheader:                                       ; preds = %3, %10
  %.040.in = phi ptr [ %22, %10 ], [ %1, %3 ]
  %.038.in = phi ptr [ %21, %10 ], [ %0, %3 ]
  %.0 = phi i32 [ %.45, %10 ], [ 0, %3 ]
  %.03854 = load <4 x i32>, ptr %.038.in, align 1, !tbaa !7
  %.04053 = load <4 x i32>, ptr %.040.in, align 1, !tbaa !7
  %5 = icmp eq <4 x i32> %.03854, %.04053
  %6 = sext <4 x i1> %5 to <4 x i32>
  %7 = bitcast <4 x i32> %6 to <16 x i8>
  %8 = icmp sgt <16 x i8> %7, splat (i8 -1)
  %9 = bitcast <16 x i1> %8 to i16
  %.not = icmp eq i16 %9, 0
  br i1 %.not, label %10, label %.thread

10:                                               ; preds = %.preheader
  %11 = add nsw i32 %.0, 4
  %12 = sext i32 %11 to i64
  %13 = getelementptr inbounds i32, ptr %1, i64 %12
  %14 = load <4 x i32>, ptr %13, align 1, !tbaa !7
  %15 = getelementptr inbounds i32, ptr %0, i64 %12
  %16 = load <4 x i32>, ptr %15, align 1, !tbaa !7
  %17 = icmp eq <4 x i32> %16, %14
  %18 = sext <4 x i1> %17 to <4 x i32>
  %19 = add nsw i32 %.0, 8
  %20 = sext i32 %19 to i64
  %21 = getelementptr inbounds i32, ptr %0, i64 %20
  %22 = getelementptr inbounds i32, ptr %1, i64 %20
  %23 = bitcast <4 x i32> %18 to <16 x i8>
  %24 = icmp sgt <16 x i8> %23, splat (i8 -1)
  %25 = bitcast <16 x i1> %24 to i16
  %.not44 = icmp eq i16 %25, 0
  %.45 = select i1 %.not44, i32 %19, i32 %11
  %26 = add nsw i32 %.45, 12
  %27 = icmp slt i32 %26, %2
  %or.cond = select i1 %.not44, i1 %27, i1 false
  br i1 %or.cond, label %.preheader, label %.thread, !llvm.loop !31

28:                                               ; preds = %3
  %29 = icmp sgt i32 %2, 3
  br i1 %29, label %30, label %.thread

30:                                               ; preds = %28
  %31 = load <4 x i32>, ptr %0, align 1, !tbaa !7
  %32 = load <4 x i32>, ptr %1, align 1, !tbaa !7
  %33 = icmp eq <4 x i32> %31, %32
  %34 = sext <4 x i1> %33 to <4 x i32>
  %35 = bitcast <4 x i32> %34 to <16 x i8>
  %36 = icmp sgt <16 x i8> %35, splat (i8 -1)
  %37 = bitcast <16 x i1> %36 to i16
  %38 = icmp eq i16 %37, 0
  br i1 %38, label %39, label %.thread

39:                                               ; preds = %30
  %40 = icmp samesign ugt i32 %2, 7
  br i1 %40, label %41, label %.thread

41:                                               ; preds = %39
  %42 = getelementptr inbounds nuw i8, ptr %0, i64 16
  %43 = load <4 x i32>, ptr %42, align 1, !tbaa !7
  %44 = getelementptr inbounds nuw i8, ptr %1, i64 16
  %45 = load <4 x i32>, ptr %44, align 1, !tbaa !7
  %46 = icmp eq <4 x i32> %43, %45
  %47 = sext <4 x i1> %46 to <4 x i32>
  %48 = bitcast <4 x i32> %47 to <16 x i8>
  %49 = icmp sgt <16 x i8> %48, splat (i8 -1)
  %50 = bitcast <16 x i1> %49 to i16
  %51 = icmp eq i16 %50, 0
  %spec.select = select i1 %51, i32 8, i32 4
  br label %.thread

.thread:                                          ; preds = %.preheader, %10, %41, %28, %30, %39
  %.3 = phi i32 [ 4, %39 ], [ 0, %30 ], [ 0, %28 ], [ %spec.select, %41 ], [ %.0, %.preheader ], [ %.45, %10 ]
  %52 = icmp slt i32 %.3, %2
  br i1 %52, label %.lr.ph.preheader, label %.critedge

.lr.ph.preheader:                                 ; preds = %.thread
  %53 = sext i32 %.3 to i64
  br label %.lr.ph

.lr.ph:                                           ; preds = %.lr.ph.preheader, %59
  %indvars.iv = phi i64 [ %53, %.lr.ph.preheader ], [ %indvars.iv.next, %59 ]
  %54 = getelementptr inbounds i32, ptr %0, i64 %indvars.iv
  %55 = load i32, ptr %54, align 4, !tbaa !17
  %56 = getelementptr inbounds i32, ptr %1, i64 %indvars.iv
  %57 = load i32, ptr %56, align 4, !tbaa !17
  %58 = icmp eq i32 %55, %57
  br i1 %58, label %59, label %.critedge.loopexit.split.loop.exit59

59:                                               ; preds = %.lr.ph
  %indvars.iv.next = add nsw i64 %indvars.iv, 1
  %lftr.wideiv = trunc i64 %indvars.iv.next to i32
  %exitcond.not = icmp eq i32 %2, %lftr.wideiv
  br i1 %exitcond.not, label %.critedge, label %.lr.ph, !llvm.loop !32

.critedge.loopexit.split.loop.exit59:             ; preds = %.lr.ph
  %60 = trunc nsw i64 %indvars.iv to i32
  br label %.critedge

.critedge:                                        ; preds = %59, %.critedge.loopexit.split.loop.exit59, %.thread
  %.4.lcssa = phi i32 [ %.3, %.thread ], [ %60, %.critedge.loopexit.split.loop.exit59 ], [ %2, %59 ]
  ret i32 %.4.lcssa
}